; ModuleID = '37/38.c'
source_filename = "37/38.c"
target datalayout = "e-m:e-p270:32:32-p271:32:32-p272:64:64-i64:64-f80:128-n8:16:32:64-S128"
target triple = "x86_64-pc-linux-gnu"

@.str = private unnamed_addr constant [3 x i8] c"%d\00", align 1
@.str.1 = private unnamed_addr constant [4 x i8] c"%c\0A\00", align 1
@.str.2 = private unnamed_addr constant [4 x i8] c"no\0A\00", align 1

; Function Attrs: noinline nounwind uwtable
define dso_local i32 @main() #0 {
  %1 = alloca i32, align 4
  %2 = alloca i32, align 4
  %3 = alloca i32, align 4
  %4 = alloca i32, align 4
  %5 = alloca i32, align 4
  %6 = alloca i32, align 4
  %7 = alloca i32, align 4
  %8 = alloca i32, align 4
  %9 = alloca i32*, align 8
  %10 = alloca i8*, align 8
  %11 = alloca i8, align 1
  store i32 0, i32* %1, align 4
  store i32 -1, i32* %8, align 4
  %12 = call i32 (i8*, ...) @__isoc99_scanf(i8* getelementptr inbounds ([3 x i8], [3 x i8]* @.str, i64 0, i64 0), i32* %4)
  %13 = call i32 @getchar()
  %14 = load i32, i32* %4, align 4
  %15 = sext i32 %14 to i64
  %16 = call noalias i8* @calloc(i64 %15, i64 1) #3
  store i8* %16, i8** %10, align 8
  %17 = call noalias i8* @calloc(i64 26, i64 4) #3
  %18 = bitcast i8* %17 to i32*
  store i32* %18, i32** %9, align 8
  store i32 0, i32* %2, align 4
  br label %19

19:                                               ; preds = %110, %0
  %20 = load i32, i32* %2, align 4
  %21 = load i32, i32* %4, align 4
  %22 = icmp slt i32 %20, %21
  br i1 %22, label %23, label %113

23:                                               ; preds = %19
  store i32 1, i32* %6, align 4
  br label %24

24:                                               ; preds = %50, %23
  %25 = call i32 @getchar()
  %26 = trunc i32 %25 to i8
  store i8 %26, i8* %11, align 1
  %27 = sext i8 %26 to i32
  %28 = icmp ne i32 %27, 10
  br i1 %28, label %29, label %53

29:                                               ; preds = %24
  %30 = load i8, i8* %11, align 1
  %31 = sext i8 %30 to i32
  %32 = sub nsw i32 %31, 97
  store i32 %32, i32* %5, align 4
  %33 = load i32*, i32** %9, align 8
  %34 = load i32, i32* %5, align 4
  %35 = sext i32 %34 to i64
  %36 = getelementptr inbounds i32, i32* %33, i64 %35
  %37 = load i32, i32* %36, align 4
  %38 = icmp eq i32 %37, 0
  br i1 %38, label %39, label %45

39:                                               ; preds = %29
  %40 = load i32, i32* %6, align 4
  %41 = load i32*, i32** %9, align 8
  %42 = load i32, i32* %5, align 4
  %43 = sext i32 %42 to i64
  %44 = getelementptr inbounds i32, i32* %41, i64 %43
  store i32 %40, i32* %44, align 4
  br label %50

45:                                               ; preds = %29
  %46 = load i32*, i32** %9, align 8
  %47 = load i32, i32* %5, align 4
  %48 = sext i32 %47 to i64
  %49 = getelementptr inbounds i32, i32* %46, i64 %48
  store i32 -1, i32* %49, align 4
  br label %50

50:                                               ; preds = %45, %39
  %51 = load i32, i32* %6, align 4
  %52 = add nsw i32 %51, 1
  store i32 %52, i32* %6, align 4
  br label %24

53:                                               ; preds = %24
  %54 = load i32, i32* %6, align 4
  store i32 %54, i32* %7, align 4
  store i32 0, i32* %3, align 4
  br label %55

55:                                               ; preds = %90, %53
  %56 = load i32, i32* %3, align 4
  %57 = icmp slt i32 %56, 26
  br i1 %57, label %58, label %93

58:                                               ; preds = %55
  %59 = load i32*, i32** %9, align 8
  %60 = load i32, i32* %3, align 4
  %61 = sext i32 %60 to i64
  %62 = getelementptr inbounds i32, i32* %59, i64 %61
  %63 = load i32, i32* %62, align 4
  %64 = icmp sgt i32 %63, 0
  br i1 %64, label %65, label %84

65:                                               ; preds = %58
  %66 = load i32*, i32** %9, align 8
  %67 = load i32, i32* %3, align 4
  %68 = sext i32 %67 to i64
  %69 = getelementptr inbounds i32, i32* %66, i64 %68
  %70 = load i32, i32* %69, align 4
  %71 = load i32, i32* %7, align 4
  %72 = icmp slt i32 %70, %71
  br i1 %72, label %73, label %84

73:                                               ; preds = %65
  %74 = load i32*, i32** %9, align 8
  %75 = load i32, i32* %3, align 4
  %76 = sext i32 %75 to i64
  %77 = getelementptr inbounds i32, i32* %74, i64 %76
  %78 = load i32, i32* %77, align 4
  store i32 %78, i32* %7, align 4
  %79 = load i32*, i32** %9, align 8
  %80 = load i32, i32* %3, align 4
  %81 = sext i32 %80 to i64
  %82 = getelementptr inbounds i32, i32* %79, i64 %81
  store i32 0, i32* %82, align 4
  %83 = load i32, i32* %3, align 4
  store i32 %83, i32* %8, align 4
  br label %89

84:                                               ; preds = %65, %58
  %85 = load i32*, i32** %9, align 8
  %86 = load i32, i32* %3, align 4
  %87 = sext i32 %86 to i64
  %88 = getelementptr inbounds i32, i32* %85, i64 %87
  store i32 0, i32* %88, align 4
  br label %89

89:                                               ; preds = %84, %73
  br label %90

90:                                               ; preds = %89
  %91 = load i32, i32* %3, align 4
  %92 = add nsw i32 %91, 1
  store i32 %92, i32* %3, align 4
  br label %55

93:                                               ; preds = %55
  %94 = load i32, i32* %8, align 4
  %95 = icmp eq i32 %94, -1
  br i1 %95, label %96, label %101

96:                                               ; preds = %93
  %97 = load i8*, i8** %10, align 8
  %98 = load i32, i32* %2, align 4
  %99 = sext i32 %98 to i64
  %100 = getelementptr inbounds i8, i8* %97, i64 %99
  store i8 42, i8* %100, align 1
  br label %109

101:                                              ; preds = %93
  %102 = load i32, i32* %8, align 4
  %103 = add nsw i32 97, %102
  %104 = trunc i32 %103 to i8
  %105 = load i8*, i8** %10, align 8
  %106 = load i32, i32* %2, align 4
  %107 = sext i32 %106 to i64
  %108 = getelementptr inbounds i8, i8* %105, i64 %107
  store i8 %104, i8* %108, align 1
  br label %109

109:                                              ; preds = %101, %96
  store i32 -1, i32* %8, align 4
  br label %110

110:                                              ; preds = %109
  %111 = load i32, i32* %2, align 4
  %112 = add nsw i32 %111, 1
  store i32 %112, i32* %2, align 4
  br label %19

113:                                              ; preds = %19
  store i32 0, i32* %2, align 4
  br label %114

114:                                              ; preds = %137, %113
  %115 = load i32, i32* %2, align 4
  %116 = load i32, i32* %4, align 4
  %117 = icmp slt i32 %115, %116
  br i1 %117, label %118, label %140

118:                                              ; preds = %114
  %119 = load i8*, i8** %10, align 8
  %120 = load i32, i32* %2, align 4
  %121 = sext i32 %120 to i64
  %122 = getelementptr inbounds i8, i8* %119, i64 %121
  %123 = load i8, i8* %122, align 1
  %124 = sext i8 %123 to i32
  %125 = icmp ne i32 %124, 42
  br i1 %125, label %126, label %134

126:                                              ; preds = %118
  %127 = load i8*, i8** %10, align 8
  %128 = load i32, i32* %2, align 4
  %129 = sext i32 %128 to i64
  %130 = getelementptr inbounds i8, i8* %127, i64 %129
  %131 = load i8, i8* %130, align 1
  %132 = sext i8 %131 to i32
  %133 = call i32 (i8*, ...) @printf(i8* getelementptr inbounds ([4 x i8], [4 x i8]* @.str.1, i64 0, i64 0), i32 %132)
  br label %136

134:                                              ; preds = %118
  %135 = call i32 (i8*, ...) @printf(i8* getelementptr inbounds ([4 x i8], [4 x i8]* @.str.2, i64 0, i64 0))
  br label %136

136:                                              ; preds = %134, %126
  br label %137

137:                                              ; preds = %136
  %138 = load i32, i32* %2, align 4
  %139 = add nsw i32 %138, 1
  store i32 %139, i32* %2, align 4
  br label %114

140:                                              ; preds = %114
  %141 = load i32, i32* %1, align 4
  ret i32 %141
}

declare dso_local i32 @__isoc99_scanf(i8*, ...) #1

declare dso_local i32 @getchar() #1

; Function Attrs: nounwind
declare dso_local noalias i8* @calloc(i64, i64) #2

declare dso_local i32 @printf(i8*, ...) #1


!llvm.module.flags = !{!0}
!llvm.ident = !{!1}

!0 = !{i32 1, !"wchar_size", i32 4}
!1 = !{!"clang version 10.0.0-4ubuntu1 "}
